; Function Attrs: mustprogress uwtable
define hidden void @_ZN4lean17initialize_threadEv() local_unnamed_addr #0 personality ptr @__gxx_personality_v0 {
  %1 = tail call noalias noundef nonnull dereferenceable(4) ptr @_Znwm(i64 noundef 4) #24
  %2 = tail call i32 @pthread_key_create(ptr noundef nonnull align 4 dereferenceable(4) %1, ptr noundef nonnull @_ZN4lean25thread_finalizers_manager15finalize_threadEPv) #23
  %3 = load i32, ptr %1, align 4, !tbaa !19
  %4 = tail call noundef ptr @pthread_getspecific(i32 noundef %3) #23
  %5 = icmp eq ptr %4, null
  br i1 %5, label %6, label %_ZN4lean25thread_finalizers_managerC2Ev.exit

6:                                                ; preds = %0
  %7 = invoke noalias noundef nonnull dereferenceable(48) ptr @_Znwm(i64 noundef 48) #24
          to label %.noexc unwind label %11

.noexc:                                           ; preds = %6
  tail call void @llvm.memset.p0.i64(ptr noundef nonnull align 8 dereferenceable(48) %7, i8 0, i64 48, i1 false)
  %8 = load i32, ptr %1, align 4, !tbaa !19
  %9 = tail call i32 @pthread_setspecific(i32 noundef %8, ptr noundef nonnull %7) #23
  br label %_ZN4lean25thread_finalizers_managerC2Ev.exit

_ZN4lean25thread_finalizers_managerC2Ev.exit:     ; preds = %.noexc, %0
  store ptr %1, ptr @_ZN4leanL23g_thread_finalizers_mgrE, align 8, !tbaa !17
  %10 = tail call noalias noundef nonnull dereferenceable(24) ptr @_Znwm(i64 noundef 24) #24
  tail call void @llvm.memset.p0.i64(ptr noundef nonnull align 8 dereferenceable(24) %10, i8 0, i64 24, i1 false)
  store ptr %10, ptr @_ZN4leanL24g_thread_local_reset_fnsE, align 8, !tbaa !3
  ret void

11:                                               ; preds = %6
  %12 = landingpad { ptr, i32 }
          cleanup
  tail call void @_ZdlPvm(ptr noundef nonnull %1, i64 noundef 4) #25
  resume { ptr, i32 } %12
}